target datalayout = "e-m:e-p270:32:32-p271:32:32-p272:64:64-i64:64-i128:128-f80:128-n8:16:32:64-S128"
target triple = "x86_64-pc-linux-gnu"

%struct.H5O_info2_t = type { i64, %struct.H5O_token_t, i32, i32, i64, i64, i64, i64, i64 }
%struct.H5O_token_t = type { [16 x i8] }
%struct.trav_handle_udata_t = type { i64, ptr }
%struct.trav_attr_udata_t = type { ptr, ptr }

@.str.99 = private unnamed_addr constant [27 x i8] c"unknown object type value\0A\00", align 1

; Function Attrs: nounwind uwtable
define internal i32 @obj_search(ptr noundef %0, ptr noundef %1, ptr noundef %2, ptr noundef %3) #0 {
  %5 = alloca ptr, align 8
  %6 = alloca ptr, align 8
  %7 = alloca ptr, align 8
  %8 = alloca ptr, align 8
  %9 = alloca ptr, align 8
  %10 = alloca ptr, align 8
  %11 = alloca %struct.trav_attr_udata_t, align 8
  store ptr %0, ptr %5, align 8, !tbaa !22
  store ptr %1, ptr %6, align 8, !tbaa !122
  store ptr %2, ptr %7, align 8, !tbaa !22
  store ptr %3, ptr %8, align 8, !tbaa !24
  call void @llvm.lifetime.start.p0(i64 8, ptr %9) #10
  %12 = load ptr, ptr %8, align 8, !tbaa !24
  store ptr %12, ptr %9, align 8, !tbaa !24
  call void @llvm.lifetime.start.p0(i64 8, ptr %10) #10
  %13 = load ptr, ptr %9, align 8, !tbaa !24
  %14 = getelementptr inbounds nuw %struct.trav_handle_udata_t, ptr %13, i32 0, i32 1
  %15 = load ptr, ptr %14, align 8, !tbaa !121
  store ptr %15, ptr %10, align 8, !tbaa !22
  call void @llvm.lifetime.start.p0(i64 16, ptr %11) #10
  %16 = load ptr, ptr %5, align 8, !tbaa !22
  %17 = getelementptr inbounds nuw %struct.trav_attr_udata_t, ptr %11, i32 0, i32 0
  store ptr %16, ptr %17, align 8, !tbaa !124
  %18 = load ptr, ptr %10, align 8, !tbaa !22
  %19 = getelementptr inbounds nuw %struct.trav_attr_udata_t, ptr %11, i32 0, i32 1
  store ptr %18, ptr %19, align 8, !tbaa !126
  %20 = load ptr, ptr %9, align 8, !tbaa !24
  %21 = getelementptr inbounds nuw %struct.trav_handle_udata_t, ptr %20, i32 0, i32 0
  %22 = load i64, ptr %21, align 8, !tbaa !119
  %23 = load ptr, ptr %5, align 8, !tbaa !22
  %24 = call i32 @H5Aiterate_by_name(i64 noundef %22, ptr noundef %23, i32 noundef 0, i32 noundef 0, ptr noundef null, ptr noundef @attr_search, ptr noundef %11, i64 noundef 0)
  %25 = load ptr, ptr %5, align 8, !tbaa !22
  %26 = load ptr, ptr %10, align 8, !tbaa !22
  %27 = call i32 @strcmp(ptr noundef %25, ptr noundef %26) #11
  %28 = icmp eq i32 %27, 0
  br i1 %28, label %29, label %51

29:                                               ; preds = %4
  %30 = load ptr, ptr %6, align 8, !tbaa !122
  %31 = getelementptr inbounds nuw %struct.H5O_info2_t, ptr %30, i32 0, i32 2
  %32 = load i32, ptr %31, align 8, !tbaa !50
  switch i32 %32, label %49 [
    i32 0, label %33
    i32 1, label %38
    i32 2, label %43
    i32 3, label %48
    i32 -1, label %48
    i32 4, label %48
  ]

33:                                               ; preds = %29
  %34 = load ptr, ptr %9, align 8, !tbaa !24
  %35 = getelementptr inbounds nuw %struct.trav_handle_udata_t, ptr %34, i32 0, i32 0
  %36 = load i64, ptr %35, align 8, !tbaa !119
  %37 = load ptr, ptr %5, align 8, !tbaa !22
  call void @handle_groups(i64 noundef %36, ptr noundef %37, ptr noundef null, i32 noundef 0, ptr noundef null)
  br label %50

38:                                               ; preds = %29
  %39 = load ptr, ptr %9, align 8, !tbaa !24
  %40 = getelementptr inbounds nuw %struct.trav_handle_udata_t, ptr %39, i32 0, i32 0
  %41 = load i64, ptr %40, align 8, !tbaa !119
  %42 = load ptr, ptr %5, align 8, !tbaa !22
  call void @handle_datasets(i64 noundef %41, ptr noundef %42, ptr noundef null, i32 noundef 0, ptr noundef null)
  br label %50

43:                                               ; preds = %29
  %44 = load ptr, ptr %9, align 8, !tbaa !24
  %45 = getelementptr inbounds nuw %struct.trav_handle_udata_t, ptr %44, i32 0, i32 0
  %46 = load i64, ptr %45, align 8, !tbaa !119
  %47 = load ptr, ptr %5, align 8, !tbaa !22
  call void @handle_datatypes(i64 noundef %46, ptr noundef %47, ptr noundef null, i32 noundef 0, ptr noundef null)
  br label %50

48:                                               ; preds = %29, %29, %29
  br label %49

49:                                               ; preds = %29, %48
  call void (ptr, ...) @error_msg(ptr noundef @.str.99)
  call void @h5tools_setstatus(i32 noundef 1)
  br label %50

50:                                               ; preds = %49, %43, %38, %33
  br label %51

51:                                               ; preds = %50, %4
  call void @llvm.lifetime.end.p0(i64 16, ptr %11) #10
  call void @llvm.lifetime.end.p0(i64 8, ptr %10) #10
  call void @llvm.lifetime.end.p0(i64 8, ptr %9) #10
  ret i32 0
}