; Function Attrs: nounwind uwtable
define internal noundef i32 @obj_search(ptr noundef %0, ptr noundef readonly captures(none) %1, ptr readnone captures(none) %2, ptr noundef readonly captures(none) %3) #0 {
  %5 = alloca %struct.trav_attr_udata_t, align 8
  %6 = getelementptr inbounds nuw i8, ptr %3, i64 8
  %7 = load ptr, ptr %6, align 8, !tbaa !123
  call void @llvm.lifetime.start.p0(i64 16, ptr nonnull %5) #15
  store ptr %0, ptr %5, align 8, !tbaa !124
  %8 = getelementptr inbounds nuw i8, ptr %5, i64 8
  store ptr %7, ptr %8, align 8, !tbaa !126
  %9 = load i64, ptr %3, align 8, !tbaa !121
  %10 = call i32 @H5Aiterate_by_name(i64 noundef %9, ptr noundef %0, i32 noundef 0, i32 noundef 0, ptr noundef null, ptr noundef nonnull @attr_search, ptr noundef nonnull %5, i64 noundef 0) #15
  %11 = call i32 @strcmp(ptr noundef nonnull dereferenceable(1) %0, ptr noundef nonnull dereferenceable(1) %7) #17
  %12 = icmp eq i32 %11, 0
  br i1 %12, label %13, label %23

13:                                               ; preds = %4
  %14 = getelementptr inbounds nuw i8, ptr %1, i64 24
  %15 = load i32, ptr %14, align 8, !tbaa !47
  switch i32 %15, label %22 [
    i32 0, label %16
    i32 1, label %18
    i32 2, label %20
  ]

16:                                               ; preds = %13
  %17 = load i64, ptr %3, align 8, !tbaa !121
  call void @handle_groups(i64 noundef %17, ptr noundef nonnull %0, ptr poison, i32 noundef 0, ptr noundef null)
  br label %23

18:                                               ; preds = %13
  %19 = load i64, ptr %3, align 8, !tbaa !121
  call void @handle_datasets(i64 noundef %19, ptr noundef nonnull %0, ptr noundef null, i32 noundef 0, ptr noundef null)
  br label %23

20:                                               ; preds = %13
  %21 = load i64, ptr %3, align 8, !tbaa !121
  call void @handle_datatypes(i64 noundef %21, ptr noundef nonnull %0, ptr poison, i32 noundef 0, ptr noundef null)
  br label %23

22:                                               ; preds = %13
  call void (ptr, ...) @error_msg(ptr noundef nonnull @.str.99) #15
  call void @h5tools_setstatus(i32 noundef 1) #15
  br label %23

23:                                               ; preds = %16, %18, %20, %22, %4
  call void @llvm.lifetime.end.p0(i64 16, ptr nonnull %5) #15
  ret i32 0
}